MPASM  5.50                 MOTOR_PUENTEH.ASM   4-11-2021  20:38:35         PAGE  1


LOC  OBJECT CODE     LINE SOURCE TEXT
  VALUE

Warning[205]: Found directive in column 1. (list)
                      00001 list            p=16f887        ; list directive to define processor
                      00002 #include        <p16f887.inc>   ; processor specific variable definitions
                      00001         LIST
                      00002 
                      00003 ;==========================================================================
                      00004 ;  MPASM PIC16F887 processor include
                      00005 ; 
                      00006 ;  (c) Copyright 1999-2013 Microchip Technology, All rights reserved
                      00007 ;==========================================================================
                      00008 
                      00809         LIST
                      00003 
                      00004 
2007   28E4           00005         __CONFIG    _CONFIG1, _LVP_OFF & _FCMEN_ON & _IESO_OFF & _BOR_OFF & _CPD_OFF & _CP_OFF & _MCLRE_
                            ON & _PWRTE_ON & _WDT_OFF & _INTRC_OSC_NOCLKOUT
2008   3EFF           00006         __CONFIG    _CONFIG2, _WRT_OFF & _BOR21V
                      00007 
                      00008 
Warning[205]: Found directive in column 1. (ORG)
0000                  00009 ORG 0x000 ; posición 0
Warning[205]: Found directive in column 1. (CBLOCK)
                      00010 CBLOCK 0X20
  00000020            00011         CounterA, CounterB, CounterC, Aux, Contador, Co
Warning[205]: Found directive in column 1. (ENDC)
                      00012 ENDC
Warning[203]: Found opcode in column 1. (NOP)
0000   0000           00013 NOP
Warning[203]: Found opcode in column 1. (GOTO)
0001   2802           00014 GOTO PUERTOS ; Comienzo del programa
                      00015 
0002                  00016 PUERTOS:
                      00017 ; SE ACCEDE AL BANCO 1 PARA USAR LOS TRIS
0002   1683           00018         BSF                     STATUS, RP0 
                      00019 ; SE CONFIGURAN LOS PUERTOS DE ENTRADAS Y SALIDAS
0003   30FF           00020         MOVLW           0XFF                                    ;W = 11111111
Message[302]: Register in operand not in bank 0.  Ensure that bank bits are correct.
0004   0085           00021         MOVWF           TRISA                           ;PUERTO A COMO ENTRADA
0005   3000           00022         MOVLW           0X00                            ;W=00000000
Message[302]: Register in operand not in bank 0.  Ensure that bank bits are correct.
0006   0086           00023         MOVWF           TRISB                           ;PUERTO B COMO SALIDA
0007   3000           00024         MOVLW           0X00                            ;W=00000000
Message[302]: Register in operand not in bank 0.  Ensure that bank bits are correct.
0008   0087           00025         MOVWF           TRISC                           ; PUERTO C COMO SALIDA
0009   3000           00026         MOVLW           0X00                            ;W=00000000
Message[302]: Register in operand not in bank 0.  Ensure that bank bits are correct.
000A   0088           00027         MOVWF           TRISD                           ; PUERTO D COMO SALIDA
                      00028 
                      00029 ;SE ACCEDE AL BANCO 3 PARA LOS ANSEL, ANSELH
000B   1703           00030         BSF                     STATUS, RP1
                      00031 ;SE LIMPIAN (coloca 0's)LOS REGISTROS ANSEL, ANSELH PARA E/S DIGITAL
Message[302]: Register in operand not in bank 0.  Ensure that bank bits are correct.
000C   0188           00032         CLRF            ANSEL
MPASM  5.50                 MOTOR_PUENTEH.ASM   4-11-2021  20:38:35         PAGE  2


LOC  OBJECT CODE     LINE SOURCE TEXT
  VALUE

Message[302]: Register in operand not in bank 0.  Ensure that bank bits are correct.
000D   0189           00033         CLRF            ANSELH
                      00034 
                      00035 ;SE ACCEDE AL BANCO 0 PARA LOS PUERTOS
000E   1303           00036         BCF                     STATUS, RP1
000F   1283           00037         BCF                     STATUS, RP0
                      00038 ;SE COLOCA EN CEROS LOS PUERTOS
0010   0186           00039         CLRF            PORTB
0011   0185           00040         CLRF            PORTA
0012   0187           00041         CLRF            PORTC
0013   0188           00042         CLRF                    PORTD
                      00043         ;BCF            STATUS,C
                      00044 
0014                  00045 INICIO:
0014   1C05           00046         BTFSS           PORTA,0                 ;Está en 1
0015   281A           00047         GOTO            Cero0           ;NO
0016   2817           00048         GOTO            Uno0            ;SI
                      00049         
                      00050 
0017                  00051 Uno0:
0017   1C85           00052         BTFSS           PORTA,1         ;Está en 1
0018   2834           00053         GOTO            SEC1            ;NO
0019   2862           00054         GOTO            SEC3            ;SI
                      00055         
                      00056 
001A                  00057 Cero0:
001A   1C85           00058         BTFSS           PORTA,1         ;Está en 1
001B   281D           00059         GOTO            SEC0            ;NO
001C   284B           00060         GOTO            SEC2            ;SI
                      00061 
                      00062         
                      00063 
                      00064 
                      00065 ; ------------------------------------------------SEC 0------------------------------------- 00
001D                  00066 SEC0:                                           ; M1 - DERECHA
001D   01A4           00067         CLRF            Contador
001E   01A5           00068         CLRF                    Co
                      00069 
001F                  00070 PRINT_M1DER:
001F   0824           00071         MOVF            Contador, W
Warning[202]: Argument out of range.  Least significant bits used.
0020   08A4           00072         MOVF            Contador, Co
0021   2079           00073         CALL            M1DER
0022   0086           00074         MOVWF           PORTB
                      00075 
                      00076 
0023                  00077 PRINT_M1DER2:
0023   0825           00078         MOVF            Co,W
0024   2085           00079         CALL            M1DER2
0025   0087           00080         MOVWF           PORTC
0026   20E1           00081         CALL            RETARDO_400ms
                      00082 
0027   0AA4           00083         INCF                    Contador, F
MPASM  5.50                 MOTOR_PUENTEH.ASM   4-11-2021  20:38:35         PAGE  3


LOC  OBJECT CODE     LINE SOURCE TEXT
  VALUE

0028   0AA5           00084         INCF                    Co, F
                      00085 
0029   1C05           00086         BTFSS           PORTA,0                 ; EL PUERTO ESTÁ EN 1?
002A   282C           00087         GOTO            CCx                             ; NO
002B   2814           00088         GOTO            INICIO                  ; SI
                      00089 
002C                  00090 CCx:
002C   1C85           00091         BTFSS           PORTA,1                 ; EL PUERTO ESTÁ EN 1?
002D   282F           00092         GOTO            CONTADOR                ;NO
002E   2814           00093         GOTO            INICIO                  ;SI
                      00094 
002F                  00095 CONTADOR:
002F   300B           00096         MOVLW           .11
0030   0624           00097         XORWF           Contador, W
0031   1D03           00098         BTFSS           STATUS, Z
0032   281F           00099         GOTO            PRINT_M1DER
0033   2814           00100         GOTO            INICIO
                      00101 
                      00102 ; ------------------------------------------------SEC 1------------------------------------- 01
0034                  00103 SEC1:                                           ; M1 - IZQUIERDA
0034   01A4           00104         CLRF            Contador
0035   01A5           00105         CLRF                    Co
                      00106 
0036                  00107 PRINT_M1IZQ:
0036   0824           00108         MOVF            Contador, W
Warning[202]: Argument out of range.  Least significant bits used.
0037   08A4           00109         MOVF            Contador, Co
0038   2091           00110         CALL            M1IZQ
0039   0086           00111         MOVWF           PORTB
                      00112 
003A                  00113 PRINT_M1IZQ2:
003A   0825           00114         MOVF            Co,W
003B   209F           00115         CALL            M1IZQ2
003C   0087           00116         MOVWF           PORTC
003D   20E1           00117         CALL            RETARDO_400ms
                      00118 
003E   0AA4           00119         INCF                    Contador, F
003F   0AA5           00120         INCF                    Co, F
                      00121 
0040   1C05           00122         BTFSS           PORTA,0                 ;ESTÁ EN 1?
0041   2814           00123         GOTO            INICIO                  ;NO
0042   2843           00124         GOTO            CUx                             ;SI
                      00125 
0043                  00126 CUx:
0043   1C85           00127         BTFSS           PORTA,1                 ;ESTÁ EN 1?
0044   2846           00128         GOTO            CONTADOR1               ;NO
0045   2814           00129         GOTO            INICIO                  ;SI
                      00130 
0046                  00131 CONTADOR1:
0046   300D           00132         MOVLW           .13
0047   0624           00133         XORWF           Contador, W
0048   1D03           00134         BTFSS           STATUS, Z
0049   2836           00135         GOTO            PRINT_M1IZQ
MPASM  5.50                 MOTOR_PUENTEH.ASM   4-11-2021  20:38:35         PAGE  4


LOC  OBJECT CODE     LINE SOURCE TEXT
  VALUE

004A   2814           00136         GOTO            INICIO
                      00137 
                      00138 
                      00139 ; ------------------------------------------------SEC 2------------------------------------- 10
004B                  00140 SEC2:                                           ; M2 - DERECHA
004B   01A4           00141         CLRF            Contador
004C   01A5           00142         CLRF                    Co
                      00143 
004D                  00144 PRINT_M2DER:
004D   0824           00145         MOVF            Contador, W
Warning[202]: Argument out of range.  Least significant bits used.
004E   08A4           00146         MOVF            Contador, Co
004F   20AD           00147         CALL            M2DER
0050   0086           00148         MOVWF           PORTB
                      00149 
0051                  00150 PRINT_M2DER2:
0051   0825           00151         MOVF            Co,W
0052   20B9           00152         CALL            M2DER2
0053   0087           00153         MOVWF           PORTC
0054   20E1           00154         CALL            RETARDO_400ms
                      00155 
0055   0AA4           00156         INCF                    Contador, F
0056   0AA5           00157         INCF                    Co, F
                      00158 
0057   1C05           00159         BTFSS           PORTA,0                 ;ESTÁ EN 1?
0058   285A           00160         GOTO            UCx                             ;NO 
0059   2814           00161         GOTO            INICIO                  ;SI
005A                  00162 UCx:
005A   1C85           00163         BTFSS           PORTA,1                 ;ESTÁ EN 1?
005B   2814           00164         GOTO            INICIO                  ;NO
005C   285D           00165         GOTO            CONTADOR2               ;SI     
                      00166 
005D                  00167 CONTADOR2:
005D   300B           00168         MOVLW           .11
005E   0624           00169         XORWF           Contador, W
005F   1D03           00170         BTFSS           STATUS, Z
0060   284D           00171         GOTO            PRINT_M2DER
0061   2814           00172         GOTO            INICIO
                      00173 ; ------------------------------------------------SEC 3------------------------------------- 11
0062                  00174 SEC3:                                           ; M2 - IZQUIERDA
0062   01A4           00175         CLRF            Contador
0063   01A5           00176         CLRF                    Co
                      00177 
0064                  00178 PRINT_M2IZQ:
0064   0824           00179         MOVF            Contador, W
Warning[202]: Argument out of range.  Least significant bits used.
0065   08A4           00180         MOVF            Contador, Co
0066   20C5           00181         CALL            M2IZQ
0067   0086           00182         MOVWF           PORTB
                      00183 
0068                  00184 PRINT_M2IZQ2:
0068   0825           00185         MOVF            Co,W
0069   20D3           00186         CALL            M2IZQ2
MPASM  5.50                 MOTOR_PUENTEH.ASM   4-11-2021  20:38:35         PAGE  5


LOC  OBJECT CODE     LINE SOURCE TEXT
  VALUE

006A   0087           00187         MOVWF           PORTC
006B   20E1           00188         CALL            RETARDO_400ms
                      00189 
006C   0AA4           00190         INCF                    Contador, F
006D   0AA5           00191         INCF                    Co, F
006E   1C05           00192         BTFSS           PORTA,0                 ;ESTÁ EN 1?
006F   2814           00193         GOTO            INICIO                  ; NO
0070   2871           00194         GOTO            UUx                             ;SI
                      00195 
0071                  00196 UUx:
0071   1C85           00197         BTFSS           PORTA,1                 ; ESTÁ EN 1?
0072   2814           00198         GOTO            INICIO                  ;NO
0073   2874           00199         GOTO            CONTADOR3               ;SI
                      00200 
0074                  00201 CONTADOR3:
0074   300D           00202         MOVLW           .13
0075   0624           00203         XORWF           Contador, W
0076   1D03           00204         BTFSS           STATUS, Z
0077   2864           00205         GOTO            PRINT_M2IZQ
0078   2814           00206         GOTO            INICIO
                      00207 
                      00208 ; DISPLAY M1-DERECHA
0079                  00209 M1DER:
0079   0782           00210         ADDWF           PCL, F
007A   3433           00211         RETLW           b'00110011'     ; M_1
007B   34F3           00212         RETLW           b'11110011'     ; 1_1
007C   34FF           00213         RETLW           b'11111111'     ; -_1
007D   34C0           00214         RETLW           b'11000000'     ; D_1
007E   340C           00215         RETLW           b'00001100'     ; E_1
007F   3438           00216         RETLW           b'00111000'     ; R_1
0080   340C           00217         RETLW           b'00001100'     ; E_1
0081   340C           00218         RETLW           b'00001100'     ; C_1
0082   3433           00219         RETLW           b'00110011'     ; H_1
0083   3430           00220         RETLW           b'00110000'     ; A_1
0084   34FF           00221         RETLW           b'11111111'     ; ESPACIO
                      00222 
0085                  00223 M1DER2:
0085   0782           00224         ADDWF           PCL, F
0086   34FA           00225         RETLW           b'11111010'     ; M_2
0087   34FB           00226         RETLW           b'11111011'     ; 1_2
0088   3477           00227         RETLW           b'01110111'     ; -_2
0089   34DD           00228         RETLW           b'11011101'     ; D_2
008A   347F           00229         RETLW           b'01111111'     ; E_2
008B   3467           00230         RETLW           b'01100111'     ; R_2
008C   347F           00231         RETLW           b'01111111'     ; E_2
008D   34FF           00232         RETLW           b'11111111'     ; C_2
008E   3477           00233         RETLW           b'01110111'     ; H_2
008F   3477           00234         RETLW           b'01110111'     ; A_2
0090   34FF           00235         RETLW           b'11111111'     ; ESPACIO
                      00236 
                      00237 
                      00238 ; DISPLAY M1-IZQUIERDA
0091                  00239 M1IZQ:
MPASM  5.50                 MOTOR_PUENTEH.ASM   4-11-2021  20:38:35         PAGE  6


LOC  OBJECT CODE     LINE SOURCE TEXT
  VALUE

0091   0782           00240         ADDWF           PCL, F
0092   3433           00241         RETLW           b'00110011'     ; M_1
0093   34F3           00242         RETLW           b'11110011'     ; 1_1
0094   34FF           00243         RETLW           b'11111111'     ; -_1
0095   34CC           00244         RETLW           b'11001100'     ; I_1
0096   34CC           00245         RETLW           b'11001100'     ; Z_1
0097   3400           00246         RETLW           b'00000000'     ; Q_1
0098   3403           00247         RETLW           b'00000011'     ; U_1
0099   34CC           00248         RETLW           b'11001100'     ; I_1
009A   340C           00249         RETLW           b'00001100'     ; E_1
009B   3438           00250         RETLW           b'00111000'     ; R_1
009C   34C0           00251         RETLW           b'11000000'     ; D_1
009D   3430           00252         RETLW           b'00110000'     ; A_1
009E   34FF           00253         RETLW           b'11111111'     ; ESPACIO
                      00254 
009F                  00255 M1IZQ2:
009F   0782           00256         ADDWF           PCL, F
00A0   34FA           00257         RETLW           b'11111010'     ; M_2
00A1   34FB           00258         RETLW           b'11111011'     ; 1_2
00A2   3477           00259         RETLW           b'01110111'     ; -_2
00A3   34DD           00260         RETLW           b'11011101'     ; I_2
00A4   34BB           00261         RETLW           b'10111011'     ; Z_2
00A5   34EF           00262         RETLW           b'11101111'     ; Q_2
00A6   34FF           00263         RETLW           b'11111111'     ; U_2
00A7   34DD           00264         RETLW           b'11011101'     ; I_2
00A8   347F           00265         RETLW           b'01111111'     ; E_2
00A9   3467           00266         RETLW           b'01100111'     ; R_2
00AA   34DD           00267         RETLW           b'11011101'     ; D_2
00AB   3477           00268         RETLW           b'01110111'     ; A_2
00AC   34FF           00269         RETLW           b'11111111'     ; ESPACIO
                      00270 
                      00271 
                      00272 ; DISPLAY M2-DERECHA
00AD                  00273 M2DER:
00AD   0782           00274         ADDWF           PCL, F
00AE   3433           00275         RETLW           b'00110011'     ; M_1
00AF   3488           00276         RETLW           b'10001000'     ; 2_1
00B0   34FF           00277         RETLW           b'11111111'     ; -_1
00B1   34C0           00278         RETLW           b'11000000'     ; D_1
00B2   340C           00279         RETLW           b'00001100'     ; E_1
00B3   3438           00280         RETLW           b'00111000'     ; R_1
00B4   340C           00281         RETLW           b'00001100'     ; E_1
00B5   340C           00282         RETLW           b'00001100'     ; C_1
00B6   3433           00283         RETLW           b'00110011'     ; H_1
00B7   3430           00284         RETLW           b'00110000'     ; A_1
00B8   34FF           00285         RETLW           b'11111111'     ; ESPACIO
                      00286 
00B9                  00287 M2DER2:
00B9   0782           00288         ADDWF           PCL, F
00BA   34FA           00289         RETLW           b'11111010'     ; M_2
00BB   3477           00290         RETLW           b'01110111'     ; 2_2
00BC   3477           00291         RETLW           b'01110111'     ; -_2
00BD   34DD           00292         RETLW           b'11011101'     ; D_2
MPASM  5.50                 MOTOR_PUENTEH.ASM   4-11-2021  20:38:35         PAGE  7


LOC  OBJECT CODE     LINE SOURCE TEXT
  VALUE

00BE   347F           00293         RETLW           b'01111111'     ; E_2
00BF   3467           00294         RETLW           b'01100111'     ; R_2
00C0   347F           00295         RETLW           b'01111111'     ; E_2
00C1   34FF           00296         RETLW           b'11111111'     ; C_2
00C2   3477           00297         RETLW           b'01110111'     ; H_2
00C3   3477           00298         RETLW           b'01110111'     ; A_2
00C4   34FF           00299         RETLW           b'11111111'     ; ESPACIO
                      00300         
                      00301 
                      00302 ; DISPLAY M2-IZQUIERDA
00C5                  00303 M2IZQ:
00C5   0782           00304         ADDWF           PCL, F
00C6   3433           00305         RETLW           b'00110011'     ; M_1
00C7   3488           00306         RETLW           b'10001000'     ; 2_1
00C8   34FF           00307         RETLW           b'11111111'     ; -_1
00C9   34CC           00308         RETLW           b'11001100'     ; I_1
00CA   34CC           00309         RETLW           b'11001100'     ; Z_1
00CB   3400           00310         RETLW           b'00000000'     ; Q_1
00CC   3403           00311         RETLW           b'00000011'     ; U_1
00CD   34CC           00312         RETLW           b'11001100'     ; I_1
00CE   340C           00313         RETLW           b'00001100'     ; E_1
00CF   3438           00314         RETLW           b'00111000'     ; R_1
00D0   34C0           00315         RETLW           b'11000000'     ; D_1
00D1   3430           00316         RETLW           b'00110000'     ; A_1
00D2   34FF           00317         RETLW           b'11111111'     ; ESPACIO
                      00318 
00D3                  00319 M2IZQ2:
00D3   0782           00320         ADDWF           PCL, F
00D4   34FA           00321         RETLW           b'11111010'     ; M_2
00D5   3477           00322         RETLW           b'01110111'     ; 2_2
00D6   3477           00323         RETLW           b'01110111'     ; -_2
00D7   34DD           00324         RETLW           b'11011101'     ; I_2
00D8   34BB           00325         RETLW           b'10111011'     ; Z_2
00D9   34EF           00326         RETLW           b'11101111'     ; Q_2
00DA   34FF           00327         RETLW           b'11111111'     ; U_2
00DB   34DD           00328         RETLW           b'11011101'     ; I_2
00DC   347F           00329         RETLW           b'01111111'     ; E_2
00DD   3467           00330         RETLW           b'01100111'     ; R_2
00DE   34DD           00331         RETLW           b'11011101'     ; D_2
00DF   3477           00332         RETLW           b'01110111'     ; A_2
00E0   34FF           00333         RETLW           b'11111111'     ; ESPACIO
                      00334 
                      00335 
                      00336 
                      00337 
                      00338 ; -----------------------------------------------RETARDO---------------------------------
00E1                  00339 RETARDO_400ms:
00E1   3003           00340                 movlw   D'3'
00E2   00A2           00341                 movwf   CounterC
00E3   3008           00342                 movlw   D'8'
00E4   00A1           00343                 movwf   CounterB
00E5   3076           00344                 movlw   D'118'
00E6   00A0           00345                 movwf   CounterA
MPASM  5.50                 MOTOR_PUENTEH.ASM   4-11-2021  20:38:35         PAGE  8


LOC  OBJECT CODE     LINE SOURCE TEXT
  VALUE

00E7   0BA0           00346 loop            decfsz  CounterA,1
00E8   28E7           00347                 goto    loop
00E9   0BA1           00348                 decfsz  CounterB,1
00EA   28E7           00349                 goto    loop
00EB   0BA2           00350                 decfsz  CounterC,1
00EC   28E7           00351                 goto    loop
00ED   3400           00352                 retlw   0
00EE   0008           00353                 RETURN
                      00354         END                      
MPASM  5.50                 MOTOR_PUENTEH.ASM   4-11-2021  20:38:35         PAGE  9


SYMBOL TABLE
  LABEL                             VALUE 

ABDEN                             00000000
ABDOVF                            00000007
ACKDT                             00000005
ACKEN                             00000004
ACKSTAT                           00000006
ADCON0                            0000001F
ADCON1                            0000009F
ADCS0                             00000006
ADCS1                             00000007
ADDEN                             00000003
ADFM                              00000007
ADIE                              00000006
ADIF                              00000006
ADON                              00000000
ADRESH                            0000001E
ADRESL                            0000009E
ANS0                              00000000
ANS1                              00000001
ANS10                             00000002
ANS11                             00000003
ANS12                             00000004
ANS13                             00000005
ANS2                              00000002
ANS3                              00000003
ANS4                              00000004
ANS5                              00000005
ANS6                              00000006
ANS7                              00000007
ANS8                              00000000
ANS9                              00000001
ANSEL                             00000188
ANSELH                            00000189
Aux                               00000023
BAUDCTL                           00000187
BCLIE                             00000003
BCLIF                             00000003
BF                                00000000
BRG0                              00000000
BRG1                              00000001
BRG10                             00000002
BRG11                             00000003
BRG12                             00000004
BRG13                             00000005
BRG14                             00000006
BRG15                             00000007
BRG16                             00000003
BRG2                              00000002
BRG3                              00000003
BRG4                              00000004
BRG5                              00000005
BRG6                              00000006
BRG7                              00000007
BRG8                              00000000
MPASM  5.50                 MOTOR_PUENTEH.ASM   4-11-2021  20:38:35         PAGE 10


SYMBOL TABLE
  LABEL                             VALUE 

BRG9                              00000001
BRGH                              00000002
C                                 00000000
C1CH0                             00000000
C1CH1                             00000001
C1IE                              00000005
C1IF                              00000005
C1OE                              00000005
C1ON                              00000007
C1OUT                             00000006
C1POL                             00000004
C1R                               00000002
C1RSEL                            00000005
C1SEN                             00000005
C2CH0                             00000000
C2CH1                             00000001
C2IE                              00000006
C2IF                              00000006
C2OE                              00000005
C2ON                              00000007
C2OUT                             00000006
C2POL                             00000004
C2R                               00000002
C2REN                             00000004
C2RSEL                            00000004
C2SYNC                            00000000
CCP1CON                           00000017
CCP1IE                            00000002
CCP1IF                            00000002
CCP1M0                            00000000
CCP1M1                            00000001
CCP1M2                            00000002
CCP1M3                            00000003
CCP1X                             00000005
CCP1Y                             00000004
CCP2CON                           0000001D
CCP2IE                            00000000
CCP2IF                            00000000
CCP2M0                            00000000
CCP2M1                            00000001
CCP2M2                            00000002
CCP2M3                            00000003
CCP2X                             00000005
CCP2Y                             00000004
CCPR1                             00000015
CCPR1H                            00000016
CCPR1L                            00000015
CCPR2                             0000001B
CCPR2H                            0000001C
CCPR2L                            0000001B
CCx                               0000002C
CHS0                              00000002
CHS1                              00000003
MPASM  5.50                 MOTOR_PUENTEH.ASM   4-11-2021  20:38:35         PAGE 11


SYMBOL TABLE
  LABEL                             VALUE 

CHS2                              00000004
CHS3                              00000005
CKE                               00000006
CKP                               00000004
CM1CON0                           00000107
CM2CON0                           00000108
CM2CON1                           00000109
CONTADOR                          0000002F
CONTADOR1                         00000046
CONTADOR2                         0000005D
CONTADOR3                         00000074
CREN                              00000004
CSRC                              00000007
CUx                               00000043
Cero0                             0000001A
Co                                00000025
Contador                          00000024
CounterA                          00000020
CounterB                          00000021
CounterC                          00000022
D                                 00000005
DATA_ADDRESS                      00000005
DC                                00000001
DC1B0                             00000004
DC1B1                             00000005
DC2B0                             00000004
DC2B1                             00000005
D_A                               00000005
D_NOT_A                           00000005
ECCPAS                            0000009C
ECCPAS0                           00000004
ECCPAS1                           00000005
ECCPAS2                           00000006
ECCPASE                           00000007
EEADR                             0000010D
EEADRH                            0000010F
EECON1                            0000018C
EECON2                            0000018D
EEDAT                             0000010C
EEDATA                            0000010C
EEDATH                            0000010E
EEIE                              00000004
EEIF                              00000004
EEPGD                             00000007
F                                 00000001
FERR                              00000002
FSR                               00000004
FVREN                             00000000
GCEN                              00000007
GIE                               00000007
GO                                00000001
GO_DONE                           00000001
GO_NOT_DONE                       00000001
MPASM  5.50                 MOTOR_PUENTEH.ASM   4-11-2021  20:38:35         PAGE 12


SYMBOL TABLE
  LABEL                             VALUE 

HTS                               00000002
I2C_DATA                          00000005
I2C_READ                          00000002
I2C_START                         00000003
I2C_STOP                          00000004
INDF                              00000000
INICIO                            00000014
INTCON                            0000000B
INTE                              00000004
INTEDG                            00000006
INTF                              00000001
IOCB                              00000096
IOCB0                             00000000
IOCB1                             00000001
IOCB2                             00000002
IOCB3                             00000003
IOCB4                             00000004
IOCB5                             00000005
IOCB6                             00000006
IOCB7                             00000007
IRCF0                             00000004
IRCF1                             00000005
IRCF2                             00000006
IRP                               00000007
LTS                               00000001
M1DER                             00000079
M1DER2                            00000085
M1IZQ                             00000091
M1IZQ2                            0000009F
M2DER                             000000AD
M2DER2                            000000B9
M2IZQ                             000000C5
M2IZQ2                            000000D3
MC1OUT                            00000007
MC2OUT                            00000006
MSK                               00000093
MSK0                              00000000
MSK1                              00000001
MSK2                              00000002
MSK3                              00000003
MSK4                              00000004
MSK5                              00000005
MSK6                              00000006
MSK7                              00000007
NOT_A                             00000005
NOT_ADDRESS                       00000005
NOT_BO                            00000000
NOT_BOR                           00000000
NOT_DONE                          00000001
NOT_PD                            00000003
NOT_POR                           00000001
NOT_RBPU                          00000007
NOT_RC8                           00000006
MPASM  5.50                 MOTOR_PUENTEH.ASM   4-11-2021  20:38:35         PAGE 13


SYMBOL TABLE
  LABEL                             VALUE 

NOT_T1SYNC                        00000002
NOT_TO                            00000004
NOT_TX8                           00000006
NOT_W                             00000002
NOT_WRITE                         00000002
OERR                              00000001
OPTION_REG                        00000081
OSCCON                            0000008F
OSCTUNE                           00000090
OSFIE                             00000007
OSFIF                             00000007
OSTS                              00000003
P                                 00000004
P1M0                              00000006
P1M1                              00000007
PCL                               00000002
PCLATH                            0000000A
PCON                              0000008E
PDC0                              00000000
PDC1                              00000001
PDC2                              00000002
PDC3                              00000003
PDC4                              00000004
PDC5                              00000005
PDC6                              00000006
PEIE                              00000006
PEN                               00000002
PIE1                              0000008C
PIE2                              0000008D
PIR1                              0000000C
PIR2                              0000000D
PORTA                             00000005
PORTB                             00000006
PORTC                             00000007
PORTD                             00000008
PORTE                             00000009
PR2                               00000092
PRINT_M1DER                       0000001F
PRINT_M1DER2                      00000023
PRINT_M1IZQ                       00000036
PRINT_M1IZQ2                      0000003A
PRINT_M2DER                       0000004D
PRINT_M2DER2                      00000051
PRINT_M2IZQ                       00000064
PRINT_M2IZQ2                      00000068
PRSEN                             00000007
PS0                               00000000
PS1                               00000001
PS2                               00000002
PSA                               00000003
PSSAC0                            00000002
PSSAC1                            00000003
PSSBD0                            00000000
MPASM  5.50                 MOTOR_PUENTEH.ASM   4-11-2021  20:38:35         PAGE 14


SYMBOL TABLE
  LABEL                             VALUE 

PSSBD1                            00000001
PSTRCON                           0000009D
PUERTOS                           00000002
PULSR                             00000002
PULSS                             00000003
PWM1CON                           0000009B
R                                 00000002
RA0                               00000000
RA1                               00000001
RA2                               00000002
RA3                               00000003
RA4                               00000004
RA5                               00000005
RA6                               00000006
RA7                               00000007
RB0                               00000000
RB1                               00000001
RB2                               00000002
RB3                               00000003
RB4                               00000004
RB5                               00000005
RB6                               00000006
RB7                               00000007
RBIE                              00000003
RBIF                              00000000
RC0                               00000000
RC1                               00000001
RC2                               00000002
RC3                               00000003
RC4                               00000004
RC5                               00000005
RC6                               00000006
RC7                               00000007
RC8_9                             00000006
RC9                               00000006
RCD8                              00000000
RCEN                              00000003
RCIDL                             00000006
RCIE                              00000005
RCIF                              00000005
RCREG                             0000001A
RCSTA                             00000018
RD                                00000000
RD0                               00000000
RD1                               00000001
RD2                               00000002
RD3                               00000003
RD4                               00000004
RD5                               00000005
RD6                               00000006
RD7                               00000007
RE0                               00000000
RE1                               00000001
MPASM  5.50                 MOTOR_PUENTEH.ASM   4-11-2021  20:38:35         PAGE 15


SYMBOL TABLE
  LABEL                             VALUE 

RE2                               00000002
RE3                               00000003
READ_WRITE                        00000002
RETARDO_400ms                     000000E1
RP0                               00000005
RP1                               00000006
RSEN                              00000001
RX9                               00000006
RX9D                              00000000
R_NOT_W                           00000002
R_W                               00000002
S                                 00000003
SBOREN                            00000004
SCKP                              00000004
SCS                               00000000
SEC0                              0000001D
SEC1                              00000034
SEC2                              0000004B
SEC3                              00000062
SEN                               00000000
SENDB                             00000003
SMP                               00000007
SPBRG                             00000099
SPBRGH                            0000009A
SPEN                              00000007
SR0                               00000006
SR1                               00000007
SRCON                             00000185
SREN                              00000005
SSPADD                            00000093
SSPBUF                            00000013
SSPCON                            00000014
SSPCON2                           00000091
SSPEN                             00000005
SSPIE                             00000003
SSPIF                             00000003
SSPM0                             00000000
SSPM1                             00000001
SSPM2                             00000002
SSPM3                             00000003
SSPMSK                            00000093
SSPOV                             00000006
SSPSTAT                           00000094
STATUS                            00000003
STRA                              00000000
STRB                              00000001
STRC                              00000002
STRD                              00000003
STRSYNC                           00000004
SWDTEN                            00000000
SYNC                              00000004
T0CS                              00000005
T0IE                              00000005
MPASM  5.50                 MOTOR_PUENTEH.ASM   4-11-2021  20:38:35         PAGE 16


SYMBOL TABLE
  LABEL                             VALUE 

T0IF                              00000002
T0SE                              00000004
T1CKPS0                           00000004
T1CKPS1                           00000005
T1CON                             00000010
T1GINV                            00000007
T1GIV                             00000007
T1GSS                             00000001
T1INSYNC                          00000002
T1OSCEN                           00000003
T1SYNC                            00000002
T2CKPS0                           00000000
T2CKPS1                           00000001
T2CON                             00000012
TMR0                              00000001
TMR0IE                            00000005
TMR0IF                            00000002
TMR1                              0000000E
TMR1CS                            00000001
TMR1GE                            00000006
TMR1H                             0000000F
TMR1IE                            00000000
TMR1IF                            00000000
TMR1L                             0000000E
TMR1ON                            00000000
TMR2                              00000011
TMR2IE                            00000001
TMR2IF                            00000001
TMR2ON                            00000002
TOUTPS0                           00000003
TOUTPS1                           00000004
TOUTPS2                           00000005
TOUTPS3                           00000006
TRISA                             00000085
TRISA0                            00000000
TRISA1                            00000001
TRISA2                            00000002
TRISA3                            00000003
TRISA4                            00000004
TRISA5                            00000005
TRISA6                            00000006
TRISA7                            00000007
TRISB                             00000086
TRISB0                            00000000
TRISB1                            00000001
TRISB2                            00000002
TRISB3                            00000003
TRISB4                            00000004
TRISB5                            00000005
TRISB6                            00000006
TRISB7                            00000007
TRISC                             00000087
TRISC0                            00000000
MPASM  5.50                 MOTOR_PUENTEH.ASM   4-11-2021  20:38:35         PAGE 17


SYMBOL TABLE
  LABEL                             VALUE 

TRISC1                            00000001
TRISC2                            00000002
TRISC3                            00000003
TRISC4                            00000004
TRISC5                            00000005
TRISC6                            00000006
TRISC7                            00000007
TRISD                             00000088
TRISD0                            00000000
TRISD1                            00000001
TRISD2                            00000002
TRISD3                            00000003
TRISD4                            00000004
TRISD5                            00000005
TRISD6                            00000006
TRISD7                            00000007
TRISE                             00000089
TRISE0                            00000000
TRISE1                            00000001
TRISE2                            00000002
TRISE3                            00000003
TRMT                              00000001
TUN0                              00000000
TUN1                              00000001
TUN2                              00000002
TUN3                              00000003
TUN4                              00000004
TX8_9                             00000006
TX9                               00000006
TX9D                              00000000
TXD8                              00000000
TXEN                              00000005
TXIE                              00000004
TXIF                              00000004
TXREG                             00000019
TXSTA                             00000098
UA                                00000001
UCx                               0000005A
ULPWUE                            00000005
ULPWUIE                           00000002
ULPWUIF                           00000002
UUx                               00000071
Uno0                              00000017
VCFG0                             00000004
VCFG1                             00000005
VR0                               00000000
VR1                               00000001
VR2                               00000002
VR3                               00000003
VRCON                             00000097
VREN                              00000007
VROE                              00000006
VRR                               00000005
MPASM  5.50                 MOTOR_PUENTEH.ASM   4-11-2021  20:38:35         PAGE 18


SYMBOL TABLE
  LABEL                             VALUE 

VRSS                              00000004
W                                 00000000
WCOL                              00000007
WDTCON                            00000105
WDTPS0                            00000001
WDTPS1                            00000002
WDTPS2                            00000003
WDTPS3                            00000004
WPUB                              00000095
WPUB0                             00000000
WPUB1                             00000001
WPUB2                             00000002
WPUB3                             00000003
WPUB4                             00000004
WPUB5                             00000005
WPUB6                             00000006
WPUB7                             00000007
WR                                00000001
WREN                              00000002
WRERR                             00000003
WUE                               00000001
Z                                 00000002
_BOR21V                           00003EFF
_BOR40V                           00003FFF
_BOR4V_BOR21V                     00003EFF
_BOR4V_BOR40V                     00003FFF
_BOREN_NSLEEP                     00003EFF
_BOREN_OFF                        00003CFF
_BOREN_ON                         00003FFF
_BOREN_SBODEN                     00003DFF
_BOR_NSLEEP                       00003EFF
_BOR_OFF                          00003CFF
_BOR_ON                           00003FFF
_BOR_SBODEN                       00003DFF
_CONFIG1                          00002007
_CONFIG2                          00002008
_CPD_OFF                          00003FFF
_CPD_ON                           00003F7F
_CP_OFF                           00003FFF
_CP_ON                            00003FBF
_DEBUG_OFF                        00003FFF
_DEBUG_ON                         00001FFF
_DEVID1                           00002006
_EC_OSC                           00003FFB
_EXTRC                            00003FFF
_EXTRCIO                          00003FFE
_EXTRC_OSC_CLKOUT                 00003FFF
_EXTRC_OSC_NOCLKOUT               00003FFE
_FCMEN_OFF                        000037FF
_FCMEN_ON                         00003FFF
_FOSC_EC                          00003FFB
_FOSC_EXTRC_CLKOUT                00003FFF
_FOSC_EXTRC_NOCLKOUT              00003FFE
MPASM  5.50                 MOTOR_PUENTEH.ASM   4-11-2021  20:38:35         PAGE 19


SYMBOL TABLE
  LABEL                             VALUE 

_FOSC_HS                          00003FFA
_FOSC_INTRC_CLKOUT                00003FFD
_FOSC_INTRC_NOCLKOUT              00003FFC
_FOSC_LP                          00003FF8
_FOSC_XT                          00003FF9
_HS_OSC                           00003FFA
_IDLOC0                           00002000
_IDLOC1                           00002001
_IDLOC2                           00002002
_IDLOC3                           00002003
_IESO_OFF                         00003BFF
_IESO_ON                          00003FFF
_INTOSC                           00003FFD
_INTOSCIO                         00003FFC
_INTRC_OSC_CLKOUT                 00003FFD
_INTRC_OSC_NOCLKOUT               00003FFC
_LP_OSC                           00003FF8
_LVP_OFF                          00002FFF
_LVP_ON                           00003FFF
_MCLRE_OFF                        00003FDF
_MCLRE_ON                         00003FFF
_PWRTE_OFF                        00003FFF
_PWRTE_ON                         00003FEF
_WDTE_OFF                         00003FF7
_WDTE_ON                          00003FFF
_WDT_OFF                          00003FF7
_WDT_ON                           00003FFF
_WRT_1FOURTH                      00003BFF
_WRT_256                          00003DFF
_WRT_HALF                         000039FF
_WRT_OFF                          00003FFF
_XT_OSC                           00003FF9
__16F887                          00000001
__DEBUG                           1
loop                              000000E7


MEMORY USAGE MAP ('X' = Used,  '-' = Unused)

0000 : XXXXXXXXXXXXXXXX XXXXXXXXXXXXXXXX XXXXXXXXXXXXXXXX XXXXXXXXXXXXXXXX
0040 : XXXXXXXXXXXXXXXX XXXXXXXXXXXXXXXX XXXXXXXXXXXXXXXX XXXXXXXXXXXXXXXX
0080 : XXXXXXXXXXXXXXXX XXXXXXXXXXXXXXXX XXXXXXXXXXXXXXXX XXXXXXXXXXXXXXXX
00C0 : XXXXXXXXXXXXXXXX XXXXXXXXXXXXXXXX XXXXXXXXXXXXXXX- ----------------
2000 : -------XX------- ---------------- ---------------- ----------------

All other memory blocks unused.

Program Memory Words Used:   239
Program Memory Words Free:  7953


MPASM  5.50                 MOTOR_PUENTEH.ASM   4-11-2021  20:38:35         PAGE 20





Errors   :     0
Warnings :    10 reported,     0 suppressed
Messages :     6 reported,     0 suppressed

